; Function Attrs: mustprogress nounwind uwtable
define hidden void @ncnn_allocator_destroy(ptr noundef %0) local_unnamed_addr #5 {
  %.not = icmp eq ptr %0, null
  br i1 %.not, label %10, label %2

2:                                                ; preds = %1
  %3 = load ptr, ptr %0, align 8
  %4 = icmp eq ptr %3, null
  br i1 %4, label %9, label %5

5:                                                ; preds = %2
  %6 = load ptr, ptr %3, align 8
  %7 = getelementptr inbounds i8, ptr %6, i64 8
  %8 = load ptr, ptr %7, align 8
  tail call void %8(ptr noundef nonnull align 8 dereferenceable(8) %3) #26
  br label %9

9:                                                ; preds = %5, %2
  tail call void @free(ptr noundef nonnull %0) #26
  br label %10

10:                                               ; preds = %9, %1
  ret void
}